target datalayout = "e-m:e-p270:32:32-p271:32:32-p272:64:64-i64:64-i128:128-f80:128-n8:16:32:64-S128"
target triple = "x86_64-pc-linux-gnu"

%"class.std::__cxx11::basic_string" = type { %"struct.std::__cxx11::basic_string<char>::_Alloc_hider", i64, %union.anon.0 }
%"struct.std::__cxx11::basic_string<char>::_Alloc_hider" = type { ptr }
%union.anon.0 = type { i64, [8 x i8] }
%"struct.vcpkg::LocalizedString" = type { %"class.std::__cxx11::basic_string" }
%"struct.vcpkg::DiagnosticLine" = type { i32, %"struct.vcpkg::Optional", %"struct.vcpkg::TextRowCol", %"struct.vcpkg::LocalizedString" }
%"struct.vcpkg::Optional" = type { %"struct.vcpkg::details::OptionalStorage" }
%"struct.vcpkg::details::OptionalStorage" = type { %"struct.vcpkg::details::OptionalStorageDtor" }
%"struct.vcpkg::details::OptionalStorageDtor" = type { i8, %union.anon }
%union.anon = type { %"class.std::__cxx11::basic_string" }
%"struct.vcpkg::TextRowCol" = type { i32, i32 }
%"struct.vcpkg::DiagnosticContext" = type { ptr }
%"struct.vcpkg::WarningDiagnosticContext" = type { %"struct.vcpkg::DiagnosticContext", ptr }

; Function Attrs: mustprogress uwtable
define dso_local void @_ZNKR5vcpkg14DiagnosticLine17reduce_to_warningEv(ptr dead_on_unwind noalias writable sret(%"struct.vcpkg::DiagnosticLine") align 8 %0, ptr noundef nonnull align 8 dereferenceable(88) %1) #0 align 2 {
  %3 = alloca ptr, align 8
  %4 = alloca ptr, align 8
  %5 = alloca %"struct.vcpkg::TextRowCol", align 4
  store ptr %0, ptr %3, align 8
  store ptr %1, ptr %4, align 8, !tbaa !9
  %6 = load ptr, ptr %4, align 8
  %7 = getelementptr inbounds nuw %"struct.vcpkg::DiagnosticLine", ptr %6, i32 0, i32 0
  %8 = load i32, ptr %7, align 8, !tbaa !36
  %9 = icmp eq i32 %8, 2
  br i1 %9, label %10, label %11

10:                                               ; preds = %2
  br label %14

11:                                               ; preds = %2
  %12 = getelementptr inbounds nuw %"struct.vcpkg::DiagnosticLine", ptr %6, i32 0, i32 0
  %13 = load i32, ptr %12, align 8, !tbaa !36
  br label %14

14:                                               ; preds = %11, %10
  %15 = phi i32 [ 3, %10 ], [ %13, %11 ]
  %16 = getelementptr inbounds nuw %"struct.vcpkg::DiagnosticLine", ptr %6, i32 0, i32 1
  %17 = getelementptr inbounds nuw %"struct.vcpkg::DiagnosticLine", ptr %6, i32 0, i32 2
  call void @llvm.memcpy.p0.p0.i64(ptr align 4 %5, ptr align 8 %17, i64 8, i1 false), !tbaa.struct !66
  %18 = getelementptr inbounds nuw %"struct.vcpkg::DiagnosticLine", ptr %6, i32 0, i32 3
  %19 = load i64, ptr %5, align 4
  call void @_ZN5vcpkg14DiagnosticLineC1ENS_8DiagKindERKNS_8OptionalINSt7__cxx1112basic_stringIcSt11char_traitsIcESaIcEEEEENS_10TextRowColERKNS_15LocalizedStringE(ptr noundef nonnull align 8 dereferenceable(88) %0, i32 noundef %15, ptr noundef nonnull align 8 dereferenceable(40) %16, i64 %19, ptr noundef nonnull align 8 dereferenceable(32) %18)
  ret void
}

; Function Attrs: mustprogress uwtable
define dso_local void @_ZN5vcpkg24WarningDiagnosticContext6reportERKNS_14DiagnosticLineE(ptr noundef nonnull align 8 dereferenceable(16) %0, ptr noundef nonnull align 8 dereferenceable(88) %1) unnamed_addr #0 align 2 personality ptr @__gxx_personality_v0 {
  %3 = alloca ptr, align 8
  %4 = alloca ptr, align 8
  %5 = alloca %"struct.vcpkg::DiagnosticLine", align 8
  %6 = alloca ptr, align 8
  %7 = alloca i32, align 4
  store ptr %0, ptr %3, align 8, !tbaa !116
  store ptr %1, ptr %4, align 8, !tbaa !9
  %8 = load ptr, ptr %3, align 8
  %9 = getelementptr inbounds nuw %"struct.vcpkg::WarningDiagnosticContext", ptr %8, i32 0, i32 1
  %10 = load ptr, ptr %9, align 8, !tbaa !118
  call void @llvm.lifetime.start.p0(i64 88, ptr %5) #20
  %11 = load ptr, ptr %4, align 8, !tbaa !9
  call void @_ZNKR5vcpkg14DiagnosticLine17reduce_to_warningEv(ptr dead_on_unwind writable sret(%"struct.vcpkg::DiagnosticLine") align 8 %5, ptr noundef nonnull align 8 dereferenceable(88) %11)
  %12 = load ptr, ptr %10, align 8, !tbaa !11
  %13 = getelementptr inbounds ptr, ptr %12, i64 1
  %14 = load ptr, ptr %13, align 8
  invoke void %14(ptr noundef nonnull align 8 dereferenceable(8) %10, ptr noundef nonnull align 8 dereferenceable(88) %5)
          to label %15 unwind label %16

15:                                               ; preds = %2
  call void @_ZN5vcpkg14DiagnosticLineD2Ev(ptr noundef nonnull align 8 dereferenceable(88) %5) #20
  call void @llvm.lifetime.end.p0(i64 88, ptr %5) #20
  ret void

16:                                               ; preds = %2
  %17 = landingpad { ptr, i32 }
          cleanup
  %18 = extractvalue { ptr, i32 } %17, 0
  store ptr %18, ptr %6, align 8
  %19 = extractvalue { ptr, i32 } %17, 1
  store i32 %19, ptr %7, align 4
  call void @_ZN5vcpkg14DiagnosticLineD2Ev(ptr noundef nonnull align 8 dereferenceable(88) %5) #20
  call void @llvm.lifetime.end.p0(i64 88, ptr %5) #20
  br label %20

20:                                               ; preds = %16
  %21 = load ptr, ptr %6, align 8
  %22 = load i32, ptr %7, align 4
  %23 = insertvalue { ptr, i32 } poison, ptr %21, 0
  %24 = insertvalue { ptr, i32 } %23, i32 %22, 1
  resume { ptr, i32 } %24
}