; Function Attrs: mustprogress uwtable
define dso_local void @_ZN5vcpkg24WarningDiagnosticContext6reportERKNS_14DiagnosticLineE(ptr noundef nonnull readonly align 8 captures(none) dereferenceable(16) %0, ptr noundef nonnull readonly align 8 captures(none) dereferenceable(88) %1) unnamed_addr #0 align 2 personality ptr @__gxx_personality_v0 {
  %3 = alloca %"struct.vcpkg::DiagnosticLine", align 8
  %4 = getelementptr inbounds nuw i8, ptr %0, i64 8
  %5 = load ptr, ptr %4, align 8, !tbaa !85
  call void @llvm.lifetime.start.p0(i64 88, ptr nonnull %3) #26
  %6 = load i32, ptr %1, align 8, !tbaa !30, !noalias !87
  %7 = icmp eq i32 %6, 2
  %spec.select.i = select i1 %7, i32 3, i32 %6
  %8 = getelementptr inbounds nuw i8, ptr %1, i64 8
  %9 = getelementptr inbounds nuw i8, ptr %1, i64 48
  %.sroa.0.0.copyload.i = load i64, ptr %9, align 8, !noalias !87
  %10 = getelementptr inbounds nuw i8, ptr %1, i64 56
  call void @_ZN5vcpkg14DiagnosticLineC2ENS_8DiagKindERKNS_8OptionalINSt7__cxx1112basic_stringIcSt11char_traitsIcESaIcEEEEENS_10TextRowColERKNS_15LocalizedStringE(ptr noundef nonnull align 8 dereferenceable(88) %3, i32 noundef %spec.select.i, ptr noundef nonnull readonly align 8 dereferenceable(40) %8, i64 %.sroa.0.0.copyload.i, ptr noundef nonnull readonly align 8 dereferenceable(32) %10)
  %11 = load ptr, ptr %5, align 8, !tbaa !4
  %12 = getelementptr inbounds nuw i8, ptr %11, i64 8
  %13 = load ptr, ptr %12, align 8
  invoke void %13(ptr noundef nonnull align 8 dereferenceable(8) %5, ptr noundef nonnull align 8 dereferenceable(88) %3)
          to label %14 unwind label %37

14:                                               ; preds = %2
  %15 = getelementptr inbounds nuw i8, ptr %3, i64 56
  %16 = load ptr, ptr %15, align 8, !tbaa !12
  %17 = getelementptr inbounds nuw i8, ptr %3, i64 72
  %18 = icmp eq ptr %16, %17
  br i1 %18, label %_ZNKSt7__cxx1112basic_stringIcSt11char_traitsIcESaIcEE11_M_is_localEv.exit.thread.i.i.i.i, label %_ZNKSt7__cxx1112basic_stringIcSt11char_traitsIcESaIcEE11_M_is_localEv.exit.i.i.i.i

_ZNKSt7__cxx1112basic_stringIcSt11char_traitsIcESaIcEE11_M_is_localEv.exit.thread.i.i.i.i: ; preds = %14
  %19 = getelementptr inbounds nuw i8, ptr %3, i64 64
  %20 = load i64, ptr %19, align 8, !tbaa !17
  %21 = icmp ult i64 %20, 16
  call void @llvm.assume(i1 %21)
  br label %_ZN5vcpkg15LocalizedStringD2Ev.exit.i

_ZNKSt7__cxx1112basic_stringIcSt11char_traitsIcESaIcEE11_M_is_localEv.exit.i.i.i.i: ; preds = %14
  %22 = load i64, ptr %17, align 8, !tbaa !18
  %23 = add i64 %22, 1
  call void @_ZdlPvm(ptr noundef %16, i64 noundef %23) #28
  br label %_ZN5vcpkg15LocalizedStringD2Ev.exit.i

_ZN5vcpkg15LocalizedStringD2Ev.exit.i:            ; preds = %_ZNKSt7__cxx1112basic_stringIcSt11char_traitsIcESaIcEE11_M_is_localEv.exit.i.i.i.i, %_ZNKSt7__cxx1112basic_stringIcSt11char_traitsIcESaIcEE11_M_is_localEv.exit.thread.i.i.i.i
  %24 = getelementptr inbounds nuw i8, ptr %3, i64 8
  %25 = load i8, ptr %24, align 8, !tbaa !39, !range !40, !noundef !41
  %26 = trunc nuw i8 %25 to i1
  br i1 %26, label %27, label %_ZN5vcpkg14DiagnosticLineD2Ev.exit

27:                                               ; preds = %_ZN5vcpkg15LocalizedStringD2Ev.exit.i
  %28 = getelementptr inbounds nuw i8, ptr %3, i64 16
  %29 = load ptr, ptr %28, align 8, !tbaa !12
  %30 = getelementptr inbounds nuw i8, ptr %3, i64 32
  %31 = icmp eq ptr %29, %30
  br i1 %31, label %_ZNKSt7__cxx1112basic_stringIcSt11char_traitsIcESaIcEE11_M_is_localEv.exit.thread.i.i.i2.i, label %_ZNKSt7__cxx1112basic_stringIcSt11char_traitsIcESaIcEE11_M_is_localEv.exit.i.i.i1.i

_ZNKSt7__cxx1112basic_stringIcSt11char_traitsIcESaIcEE11_M_is_localEv.exit.thread.i.i.i2.i: ; preds = %27
  %32 = getelementptr inbounds nuw i8, ptr %3, i64 24
  %33 = load i64, ptr %32, align 8, !tbaa !17
  %34 = icmp ult i64 %33, 16
  call void @llvm.assume(i1 %34)
  br label %_ZN5vcpkg14DiagnosticLineD2Ev.exit

_ZNKSt7__cxx1112basic_stringIcSt11char_traitsIcESaIcEE11_M_is_localEv.exit.i.i.i1.i: ; preds = %27
  %35 = load i64, ptr %30, align 8, !tbaa !18
  %36 = add i64 %35, 1
  call void @_ZdlPvm(ptr noundef %29, i64 noundef %36) #28
  br label %_ZN5vcpkg14DiagnosticLineD2Ev.exit

_ZN5vcpkg14DiagnosticLineD2Ev.exit:               ; preds = %_ZN5vcpkg15LocalizedStringD2Ev.exit.i, %_ZNKSt7__cxx1112basic_stringIcSt11char_traitsIcESaIcEE11_M_is_localEv.exit.thread.i.i.i2.i, %_ZNKSt7__cxx1112basic_stringIcSt11char_traitsIcESaIcEE11_M_is_localEv.exit.i.i.i1.i
  call void @llvm.lifetime.end.p0(i64 88, ptr nonnull %3) #26
  ret void

37:                                               ; preds = %2
  %38 = landingpad { ptr, i32 }
          cleanup
  call void @_ZN5vcpkg14DiagnosticLineD2Ev(ptr noundef nonnull align 8 dereferenceable(88) %3) #26
  call void @llvm.lifetime.end.p0(i64 88, ptr nonnull %3) #26
  resume { ptr, i32 } %38
}